; Function Attrs: mustprogress uwtable
define internal void @_ZNK7rocksdb12_GLOBAL__N_123LegacyFileSystemWrapper31OptimizeForCompactionTableWriteERKNS_11FileOptionsERKNS_18ImmutableDBOptionsE(ptr dead_on_unwind noalias writable sret(%"struct.rocksdb::FileOptions") align 8 %0, ptr noundef nonnull readonly align 8 captures(none) dereferenceable(40) %1, ptr noundef nonnull align 8 dereferenceable(138) %2, ptr noundef nonnull align 8 dereferenceable(600) %3) unnamed_addr #4 align 2 personality ptr @__gxx_personality_v0 {
  %5 = getelementptr inbounds nuw i8, ptr %1, i64 32
  %6 = load ptr, ptr %5, align 8, !tbaa !27
  %7 = load ptr, ptr %6, align 8, !tbaa !18
  %8 = getelementptr inbounds nuw i8, ptr %7, i64 608
  %9 = load ptr, ptr %8, align 8
  tail call void %9(ptr dead_on_unwind nonnull writable sret(%"struct.rocksdb::EnvOptions") align 8 %0, ptr noundef nonnull align 8 dereferenceable(72) %6, ptr noundef nonnull align 8 dereferenceable(48) %2, ptr noundef nonnull align 8 dereferenceable(600) %3)
  %10 = getelementptr inbounds nuw i8, ptr %0, i64 48
  store i64 0, ptr %10, align 8
  %11 = getelementptr inbounds nuw i8, ptr %0, i64 56
  store i8 0, ptr %11, align 8, !tbaa !70
  %12 = getelementptr inbounds nuw i8, ptr %0, i64 60
  store i32 4, ptr %12, align 4, !tbaa !86
  %13 = getelementptr inbounds nuw i8, ptr %0, i64 64
  store i8 7, ptr %13, align 8, !tbaa !87
  %14 = getelementptr inbounds nuw i8, ptr %0, i64 72
  %15 = getelementptr inbounds nuw i8, ptr %0, i64 120
  store ptr %15, ptr %14, align 8, !tbaa !88
  %16 = getelementptr inbounds nuw i8, ptr %0, i64 80
  store i64 1, ptr %16, align 8, !tbaa !89
  %17 = getelementptr inbounds nuw i8, ptr %0, i64 88
  %18 = getelementptr inbounds nuw i8, ptr %0, i64 104
  tail call void @llvm.memset.p0.i64(ptr noundef nonnull align 8 dereferenceable(16) %17, i8 0, i64 16, i1 false)
  store float 1.000000e+00, ptr %18, align 8, !tbaa !90
  %19 = getelementptr inbounds nuw i8, ptr %0, i64 112
  %20 = getelementptr inbounds nuw i8, ptr %0, i64 131
  tail call void @llvm.memset.p0.i64(ptr noundef nonnull align 8 dereferenceable(19) %19, i8 0, i64 19, i1 false)
  store i8 11, ptr %20, align 1, !tbaa !91
  %21 = getelementptr inbounds nuw i8, ptr %0, i64 136
  store i8 0, ptr %21, align 8, !tbaa !92
  %22 = getelementptr inbounds nuw i8, ptr %0, i64 137
  store i8 1, ptr %22, align 1, !tbaa !98
  ret void
}